target datalayout = "e-m:e-p270:32:32-p271:32:32-p272:64:64-i64:64-i128:128-f80:128-n8:16:32:64-S128"
target triple = "x86_64-pc-linux-gnu"

%class.PacketRangeGroupBox = type <{ %class.QGroupBox, ptr, ptr, i32, [4 x i8] }>
%class.QGroupBox = type { %class.QWidget }
%class.QWidget = type { %class.QObject, %class.QPaintDevice.base, ptr }
%class.QObject = type { ptr, %class.QScopedPointer }
%class.QScopedPointer = type { ptr }
%class.QPaintDevice.base = type <{ ptr, i16 }>
%class.Ui_PacketRangeGroupBox = type { ptr, ptr, ptr, ptr, ptr, ptr, ptr, ptr, ptr, ptr, ptr, ptr, ptr, ptr, ptr, ptr, ptr, ptr, ptr, ptr, ptr, ptr, ptr, ptr, ptr, ptr, ptr, ptr }

; Function Attrs: mustprogress uwtable
define void @_ZN19PacketRangeGroupBox28on_rangeLineEdit_textChangedERK7QString(ptr noundef nonnull align 8 dereferenceable(60) %0, ptr noundef nonnull align 8 dereferenceable(24) %1) #0 align 2 {
  %3 = alloca ptr, align 8
  %4 = alloca ptr, align 8
  store ptr %0, ptr %3, align 8
  store ptr %1, ptr %4, align 8
  %5 = load ptr, ptr %3, align 8
  %6 = getelementptr inbounds %class.PacketRangeGroupBox, ptr %5, i32 0, i32 1
  %7 = load ptr, ptr %6, align 8
  %8 = getelementptr inbounds %class.Ui_PacketRangeGroupBox, ptr %7, i32 0, i32 5
  %9 = load ptr, ptr %8, align 8
  %10 = call noundef zeroext i1 @_ZNK15QAbstractButton9isCheckedEv(ptr noundef nonnull align 8 dereferenceable(40) %9)
  br i1 %10, label %16, label %11

11:                                               ; preds = %2
  %12 = getelementptr inbounds %class.PacketRangeGroupBox, ptr %5, i32 0, i32 1
  %13 = load ptr, ptr %12, align 8
  %14 = getelementptr inbounds %class.Ui_PacketRangeGroupBox, ptr %13, i32 0, i32 5
  %15 = load ptr, ptr %14, align 8
  call void @_ZN15QAbstractButton10setCheckedEb(ptr noundef nonnull align 8 dereferenceable(40) %15, i1 noundef zeroext true)
  br label %17

16:                                               ; preds = %2
  call void @_ZN19PacketRangeGroupBox12updateCountsEv(ptr noundef nonnull align 8 dereferenceable(60) %5)
  br label %17

17:                                               ; preds = %16, %11
  ret void
}