; Function Attrs: mustprogress uwtable
define void @_ZN19PacketRangeGroupBox28on_rangeLineEdit_textChangedERK7QString(ptr noundef nonnull align 8 dereferenceable(60) %0, ptr nocapture noundef nonnull readnone align 8 dereferenceable(24) %1) local_unnamed_addr #0 align 2 {
  %3 = getelementptr inbounds i8, ptr %0, i64 40
  %4 = load ptr, ptr %3, align 8
  %5 = getelementptr inbounds i8, ptr %4, i64 40
  %6 = load ptr, ptr %5, align 8
  %7 = tail call noundef zeroext i1 @_ZNK15QAbstractButton9isCheckedEv(ptr noundef nonnull align 8 dereferenceable(40) %6)
  br i1 %7, label %12, label %8

8:                                                ; preds = %2
  %9 = load ptr, ptr %3, align 8
  %10 = getelementptr inbounds i8, ptr %9, i64 40
  %11 = load ptr, ptr %10, align 8
  tail call void @_ZN15QAbstractButton10setCheckedEb(ptr noundef nonnull align 8 dereferenceable(40) %11, i1 noundef zeroext true)
  br label %13

12:                                               ; preds = %2
  tail call void @_ZN19PacketRangeGroupBox12updateCountsEv(ptr noundef nonnull align 8 dereferenceable(60) %0)
  br label %13

13:                                               ; preds = %12, %8
  ret void
}